target datalayout = "e-m:e-p270:32:32-p271:32:32-p272:64:64-i64:64-i128:128-f80:128-n8:16:32:64-S128"
target triple = "x86_64-pc-linux-gnu"

%"struct.gmx::GridPoint" = type { [4 x double], [4 x i32], %"class.std::vector.5" }
%"class.std::vector.5" = type { %"struct.std::_Vector_base.6" }
%"struct.std::_Vector_base.6" = type { %"struct.std::_Vector_base<int, std::allocator<int>>::_Vector_impl" }
%"struct.std::_Vector_base<int, std::allocator<int>>::_Vector_impl" = type { %"struct.std::_Vector_base<int, std::allocator<int>>::_Vector_impl_data" }
%"struct.std::_Vector_base<int, std::allocator<int>>::_Vector_impl_data" = type { ptr, ptr, ptr }
%"class.gmx::BiasGrid" = type { %"class.std::vector", %"class.std::vector.0" }
%"class.std::vector" = type { %"struct.std::_Vector_base" }
%"struct.std::_Vector_base" = type { %"struct.std::_Vector_base<gmx::GridPoint, std::allocator<gmx::GridPoint>>::_Vector_impl" }
%"struct.std::_Vector_base<gmx::GridPoint, std::allocator<gmx::GridPoint>>::_Vector_impl" = type { %"struct.std::_Vector_base<gmx::GridPoint, std::allocator<gmx::GridPoint>>::_Vector_impl_data" }
%"struct.std::_Vector_base<gmx::GridPoint, std::allocator<gmx::GridPoint>>::_Vector_impl_data" = type { ptr, ptr, ptr }
%"class.std::vector.0" = type { %"struct.std::_Vector_base.1" }
%"struct.std::_Vector_base.1" = type { %"struct.std::_Vector_base<gmx::GridAxis, std::allocator<gmx::GridAxis>>::_Vector_impl" }
%"struct.std::_Vector_base<gmx::GridAxis, std::allocator<gmx::GridAxis>>::_Vector_impl" = type { %"struct.std::_Vector_base<gmx::GridAxis, std::allocator<gmx::GridAxis>>::_Vector_impl_data" }
%"struct.std::_Vector_base<gmx::GridAxis, std::allocator<gmx::GridAxis>>::_Vector_impl_data" = type { ptr, ptr, ptr }
%"class.gmx::GridAxis" = type <{ double, double, double, double, i32, i32, i8, [7 x i8] }>
%class.anon.10 = type { i8 }

@.str = private unnamed_addr constant [64 x i8] c"(subgridIndex[d] >= 0) && (subgridIndex[d] < subgridNpoints[d])\00", align 1
@.str.1 = private unnamed_addr constant [91 x i8] c"Attempted to convert an AWH grid point index not in subgrid to out of bounds subgrid index\00", align 1
@.str.2 = private unnamed_addr constant [137 x i8] c"generated/home/dtcxzyw/WorkSpace/Projects/compilers/llvm-opt-benchmark/bench/gromacs/gromacs/src/gromacs/applied_forces/awh/biasgrid.cpp\00", align 1

; Function Attrs: mustprogress nounwind uwtable
define linkonce_odr noundef nonnull align 8 dereferenceable(41) ptr @_ZNKSt6vectorIN3gmx8GridAxisESaIS1_EEixEm(ptr noundef nonnull align 8 dereferenceable(24) %0, i64 noundef %1) #1 comdat align 2 {
  %3 = alloca ptr, align 8
  %4 = alloca i64, align 8
  store ptr %0, ptr %3, align 8
  store i64 %1, ptr %4, align 8
  %5 = load ptr, ptr %3, align 8
  %6 = getelementptr inbounds %"struct.std::_Vector_base.1", ptr %5, i32 0, i32 0
  %7 = getelementptr inbounds %"struct.std::_Vector_base<gmx::GridAxis, std::allocator<gmx::GridAxis>>::_Vector_impl_data", ptr %6, i32 0, i32 0
  %8 = load ptr, ptr %7, align 8
  %9 = load i64, ptr %4, align 8
  %10 = getelementptr inbounds %"class.gmx::GridAxis", ptr %8, i64 %9
  ret ptr %10
}

; Function Attrs: mustprogress nounwind uwtable
define linkonce_odr noundef nonnull align 8 dereferenceable(72) ptr @_ZNKSt6vectorIN3gmx9GridPointESaIS1_EEixEm(ptr noundef nonnull align 8 dereferenceable(24) %0, i64 noundef %1) #1 comdat align 2 {
  %3 = alloca ptr, align 8
  %4 = alloca i64, align 8
  store ptr %0, ptr %3, align 8
  store i64 %1, ptr %4, align 8
  %5 = load ptr, ptr %3, align 8
  %6 = getelementptr inbounds %"struct.std::_Vector_base", ptr %5, i32 0, i32 0
  %7 = getelementptr inbounds %"struct.std::_Vector_base<gmx::GridPoint, std::allocator<gmx::GridPoint>>::_Vector_impl_data", ptr %6, i32 0, i32 0
  %8 = load ptr, ptr %7, align 8
  %9 = load i64, ptr %4, align 8
  %10 = getelementptr inbounds %"struct.gmx::GridPoint", ptr %8, i64 %9
  ret ptr %10
}

; Function Attrs: mustprogress nounwind uwtable
define linkonce_odr noundef i64 @_ZNKSt6vectorIN3gmx8GridAxisESaIS1_EE4sizeEv(ptr noundef nonnull align 8 dereferenceable(24) %0) #1 comdat align 2 {
  %2 = alloca ptr, align 8
  store ptr %0, ptr %2, align 8
  %3 = load ptr, ptr %2, align 8
  %4 = getelementptr inbounds %"struct.std::_Vector_base.1", ptr %3, i32 0, i32 0
  %5 = getelementptr inbounds %"struct.std::_Vector_base<gmx::GridAxis, std::allocator<gmx::GridAxis>>::_Vector_impl_data", ptr %4, i32 0, i32 1
  %6 = load ptr, ptr %5, align 8
  %7 = getelementptr inbounds %"struct.std::_Vector_base.1", ptr %3, i32 0, i32 0
  %8 = getelementptr inbounds %"struct.std::_Vector_base<gmx::GridAxis, std::allocator<gmx::GridAxis>>::_Vector_impl_data", ptr %7, i32 0, i32 0
  %9 = load ptr, ptr %8, align 8
  %10 = ptrtoint ptr %6 to i64
  %11 = ptrtoint ptr %9 to i64
  %12 = sub i64 %10, %11
  %13 = sdiv exact i64 %12, 48
  ret i64 %13
}

; Function Attrs: mustprogress uwtable
define internal void @"_ZZN3gmx12_GLOBAL__N_118gridToSubgridIndexERKNS_8BiasGridEPKiS5_iPiENK3$_0clEv"(ptr noundef nonnull align 1 dereferenceable(1) %0) #0 align 2 {
  %2 = alloca ptr, align 8
  store ptr %0, ptr %2, align 8
  call void @_ZN3gmx8internal13assertHandlerEPKcS2_S2_S2_i(ptr noundef @.str, ptr noundef @.str.1, ptr noundef @"__PRETTY_FUNCTION__._ZZN3gmx12_GLOBAL__N_118gridToSubgridIndexERKNS_8BiasGridEPKiS5_iPiENK3$_0clEv", ptr noundef @.str.2, i32 noundef 411) #13
  unreachable
}

; Function Attrs: mustprogress nounwind uwtable
define internal noundef i32 @_ZN3gmx12_GLOBAL__N_117indexWithinPeriodEii(i32 noundef %0, i32 noundef %1) #1 {
  %3 = alloca i32, align 4
  %4 = alloca i32, align 4
  %5 = alloca i32, align 4
  store i32 %0, ptr %4, align 4
  store i32 %1, ptr %5, align 4
  %6 = load i32, ptr %5, align 4
  %7 = icmp eq i32 %6, 0
  br i1 %7, label %8, label %10

8:                                                ; preds = %2
  %9 = load i32, ptr %4, align 4
  store i32 %9, ptr %3, align 4
  br label %27

10:                                               ; preds = %2
  %11 = load i32, ptr %4, align 4
  %12 = load i32, ptr %5, align 4
  %13 = icmp sge i32 %11, %12
  br i1 %13, label %14, label %18

14:                                               ; preds = %10
  %15 = load i32, ptr %4, align 4
  %16 = load i32, ptr %5, align 4
  %17 = sub nsw i32 %15, %16
  store i32 %17, ptr %3, align 4
  br label %27

18:                                               ; preds = %10
  %19 = load i32, ptr %4, align 4
  %20 = icmp slt i32 %19, 0
  br i1 %20, label %21, label %25

21:                                               ; preds = %18
  %22 = load i32, ptr %4, align 4
  %23 = load i32, ptr %5, align 4
  %24 = add nsw i32 %22, %23
  store i32 %24, ptr %3, align 4
  br label %27

25:                                               ; preds = %18
  %26 = load i32, ptr %4, align 4
  store i32 %26, ptr %3, align 4
  br label %27

27:                                               ; preds = %25, %21, %14, %8
  %28 = load i32, ptr %3, align 4
  ret i32 %28
}

; Function Attrs: mustprogress nounwind uwtable
define linkonce_odr noundef i32 @_ZNK3gmx8GridAxis17numPointsInPeriodEv(ptr noundef nonnull align 8 dereferenceable(41) %0) #1 comdat align 2 {
  %2 = alloca ptr, align 8
  store ptr %0, ptr %2, align 8
  %3 = load ptr, ptr %2, align 8
  %4 = getelementptr inbounds %"class.gmx::GridAxis", ptr %3, i32 0, i32 5
  %5 = load i32, ptr %4, align 4
  ret i32 %5
}

; Function Attrs: mustprogress nounwind uwtable
define linkonce_odr noundef nonnull align 8 dereferenceable(41) ptr @_ZNK3gmx8BiasGrid4axisEi(ptr noundef nonnull align 8 dereferenceable(48) %0, i32 noundef %1) #1 comdat align 2 {
  %3 = alloca ptr, align 8
  %4 = alloca i32, align 4
  store ptr %0, ptr %3, align 8
  store i32 %1, ptr %4, align 4
  %5 = load ptr, ptr %3, align 8
  %6 = getelementptr inbounds %"class.gmx::BiasGrid", ptr %5, i32 0, i32 1
  %7 = load i32, ptr %4, align 4
  %8 = sext i32 %7 to i64
  %9 = call noundef nonnull align 8 dereferenceable(41) ptr @_ZNKSt6vectorIN3gmx8GridAxisESaIS1_EEixEm(ptr noundef nonnull align 8 dereferenceable(24) %6, i64 noundef %8) #12
  ret ptr %9
}

; Function Attrs: mustprogress nounwind uwtable
define linkonce_odr noundef nonnull align 8 dereferenceable(72) ptr @_ZNK3gmx8BiasGrid5pointEm(ptr noundef nonnull align 8 dereferenceable(48) %0, i64 noundef %1) #1 comdat align 2 {
  %3 = alloca ptr, align 8
  %4 = alloca i64, align 8
  store ptr %0, ptr %3, align 8
  store i64 %1, ptr %4, align 8
  %5 = load ptr, ptr %3, align 8
  %6 = getelementptr inbounds %"class.gmx::BiasGrid", ptr %5, i32 0, i32 0
  %7 = load i64, ptr %4, align 8
  %8 = call noundef nonnull align 8 dereferenceable(72) ptr @_ZNKSt6vectorIN3gmx9GridPointESaIS1_EEixEm(ptr noundef nonnull align 8 dereferenceable(24) %6, i64 noundef %7) #12
  ret ptr %8
}

; Function Attrs: mustprogress nounwind uwtable
define internal noundef zeroext i1 @_ZN3gmx12_GLOBAL__N_119stepInMultiDimArrayEiPKiPi(i32 noundef %0, ptr noundef %1, ptr noundef %2) #1 {
  %4 = alloca i32, align 4
  %5 = alloca ptr, align 8
  %6 = alloca ptr, align 8
  %7 = alloca i8, align 1
  %8 = alloca i32, align 4
  store i32 %0, ptr %4, align 4
  store ptr %1, ptr %5, align 8
  store ptr %2, ptr %6, align 8
  store i8 0, ptr %7, align 1
  %9 = load i32, ptr %4, align 4
  %10 = sub nsw i32 %9, 1
  store i32 %10, ptr %8, align 4
  br label %11

11:                                               ; preds = %50, %3
  %12 = load i32, ptr %8, align 4
  %13 = icmp sge i32 %12, 0
  br i1 %13, label %14, label %18

14:                                               ; preds = %11
  %15 = load i8, ptr %7, align 1
  %16 = trunc i8 %15 to i1
  %17 = xor i1 %16, true
  br label %18

18:                                               ; preds = %14, %11
  %19 = phi i1 [ false, %11 ], [ %17, %14 ]
  br i1 %19, label %20, label %53

20:                                               ; preds = %18
  %21 = load ptr, ptr %6, align 8
  %22 = load i32, ptr %8, align 4
  %23 = sext i32 %22 to i64
  %24 = getelementptr inbounds i32, ptr %21, i64 %23
  %25 = load i32, ptr %24, align 4
  %26 = load ptr, ptr %5, align 8
  %27 = load i32, ptr %8, align 4
  %28 = sext i32 %27 to i64
  %29 = getelementptr inbounds i32, ptr %26, i64 %28
  %30 = load i32, ptr %29, align 4
  %31 = sub nsw i32 %30, 1
  %32 = icmp slt i32 %25, %31
  br i1 %32, label %33, label %40

33:                                               ; preds = %20
  %34 = load ptr, ptr %6, align 8
  %35 = load i32, ptr %8, align 4
  %36 = sext i32 %35 to i64
  %37 = getelementptr inbounds i32, ptr %34, i64 %36
  %38 = load i32, ptr %37, align 4
  %39 = add nsw i32 %38, 1
  store i32 %39, ptr %37, align 4
  store i8 1, ptr %7, align 1
  br label %49

40:                                               ; preds = %20
  %41 = load i32, ptr %8, align 4
  %42 = icmp sgt i32 %41, 0
  br i1 %42, label %43, label %48

43:                                               ; preds = %40
  %44 = load ptr, ptr %6, align 8
  %45 = load i32, ptr %8, align 4
  %46 = sext i32 %45 to i64
  %47 = getelementptr inbounds i32, ptr %44, i64 %46
  store i32 0, ptr %47, align 4
  br label %48

48:                                               ; preds = %43, %40
  br label %49

49:                                               ; preds = %48, %33
  br label %50

50:                                               ; preds = %49
  %51 = load i32, ptr %8, align 4
  %52 = add nsw i32 %51, -1
  store i32 %52, ptr %8, align 4
  br label %11, !llvm.loop !17

53:                                               ; preds = %18
  %54 = load i8, ptr %7, align 1
  %55 = trunc i8 %54 to i1
  ret i1 %55
}

; Function Attrs: mustprogress nounwind uwtable
define linkonce_odr noundef i32 @_ZNK3gmx8BiasGrid13numDimensionsEv(ptr noundef nonnull align 8 dereferenceable(48) %0) #1 comdat align 2 {
  %2 = alloca ptr, align 8
  store ptr %0, ptr %2, align 8
  %3 = load ptr, ptr %2, align 8
  %4 = getelementptr inbounds %"class.gmx::BiasGrid", ptr %3, i32 0, i32 1
  %5 = call noundef i64 @_ZNKSt6vectorIN3gmx8GridAxisESaIS1_EE4sizeEv(ptr noundef nonnull align 8 dereferenceable(24) %4) #12
  %6 = trunc i64 %5 to i32
  ret i32 %6
}

; Function Attrs: mustprogress uwtable
define internal void @_ZN3gmx12_GLOBAL__N_118gridToSubgridIndexERKNS_8BiasGridEPKiS5_iPi(ptr noundef nonnull align 8 dereferenceable(48) %0, ptr noundef %1, ptr noundef %2, i32 noundef %3, ptr noundef %4) #0 {
  %6 = alloca ptr, align 8
  %7 = alloca ptr, align 8
  %8 = alloca ptr, align 8
  %9 = alloca i32, align 4
  %10 = alloca ptr, align 8
  %11 = alloca i32, align 4
  %12 = alloca %class.anon.10, align 1
  store ptr %0, ptr %6, align 8
  store ptr %1, ptr %7, align 8
  store ptr %2, ptr %8, align 8
  store i32 %3, ptr %9, align 4
  store ptr %4, ptr %10, align 8
  store i32 0, ptr %11, align 4
  br label %13

13:                                               ; preds = %64, %5
  %14 = load i32, ptr %11, align 4
  %15 = load ptr, ptr %6, align 8
  %16 = call noundef i32 @_ZNK3gmx8BiasGrid13numDimensionsEv(ptr noundef nonnull align 8 dereferenceable(48) %15)
  %17 = icmp slt i32 %14, %16
  br i1 %17, label %18, label %67

18:                                               ; preds = %13
  %19 = load ptr, ptr %6, align 8
  %20 = load i32, ptr %9, align 4
  %21 = sext i32 %20 to i64
  %22 = call noundef nonnull align 8 dereferenceable(72) ptr @_ZNK3gmx8BiasGrid5pointEm(ptr noundef nonnull align 8 dereferenceable(48) %19, i64 noundef %21)
  %23 = getelementptr inbounds %"struct.gmx::GridPoint", ptr %22, i32 0, i32 1
  %24 = load i32, ptr %11, align 4
  %25 = sext i32 %24 to i64
  %26 = getelementptr inbounds [4 x i32], ptr %23, i64 0, i64 %25
  %27 = load i32, ptr %26, align 4
  %28 = load ptr, ptr %7, align 8
  %29 = load i32, ptr %11, align 4
  %30 = sext i32 %29 to i64
  %31 = getelementptr inbounds i32, ptr %28, i64 %30
  %32 = load i32, ptr %31, align 4
  %33 = sub nsw i32 %27, %32
  %34 = load ptr, ptr %6, align 8
  %35 = load i32, ptr %11, align 4
  %36 = call noundef nonnull align 8 dereferenceable(41) ptr @_ZNK3gmx8BiasGrid4axisEi(ptr noundef nonnull align 8 dereferenceable(48) %34, i32 noundef %35)
  %37 = call noundef i32 @_ZNK3gmx8GridAxis17numPointsInPeriodEv(ptr noundef nonnull align 8 dereferenceable(41) %36)
  %38 = call noundef i32 @_ZN3gmx12_GLOBAL__N_117indexWithinPeriodEii(i32 noundef %33, i32 noundef %37)
  %39 = load ptr, ptr %10, align 8
  %40 = load i32, ptr %11, align 4
  %41 = sext i32 %40 to i64
  %42 = getelementptr inbounds i32, ptr %39, i64 %41
  store i32 %38, ptr %42, align 4
  %43 = load ptr, ptr %10, align 8
  %44 = load i32, ptr %11, align 4
  %45 = sext i32 %44 to i64
  %46 = getelementptr inbounds i32, ptr %43, i64 %45
  %47 = load i32, ptr %46, align 4
  %48 = icmp sge i32 %47, 0
  br i1 %48, label %49, label %62

49:                                               ; preds = %18
  %50 = load ptr, ptr %10, align 8
  %51 = load i32, ptr %11, align 4
  %52 = sext i32 %51 to i64
  %53 = getelementptr inbounds i32, ptr %50, i64 %52
  %54 = load i32, ptr %53, align 4
  %55 = load ptr, ptr %8, align 8
  %56 = load i32, ptr %11, align 4
  %57 = sext i32 %56 to i64
  %58 = getelementptr inbounds i32, ptr %55, i64 %57
  %59 = load i32, ptr %58, align 4
  %60 = icmp slt i32 %54, %59
  br i1 %60, label %61, label %62

61:                                               ; preds = %49
  br label %63

62:                                               ; preds = %49, %18
  call void @"_ZZN3gmx12_GLOBAL__N_118gridToSubgridIndexERKNS_8BiasGridEPKiS5_iPiENK3$_0clEv"(ptr noundef nonnull align 1 dereferenceable(1) %12)
  br label %63

63:                                               ; preds = %62, %61
  br label %64

64:                                               ; preds = %63
  %65 = load i32, ptr %11, align 4
  %66 = add nsw i32 %65, 1
  store i32 %66, ptr %11, align 4
  br label %13, !llvm.loop !15

67:                                               ; preds = %13
  ret void
}

; Function Attrs: mustprogress uwtable
define noundef zeroext i1 @_ZN3gmx21advancePointInSubgridERKNS_8BiasGridEPKiS4_Pi(ptr noundef nonnull align 8 dereferenceable(48) %0, ptr noundef %1, ptr noundef %2, ptr noundef %3) #0 {
  %5 = alloca i1, align 1
  %6 = alloca ptr, align 8
  %7 = alloca ptr, align 8
  %8 = alloca ptr, align 8
  %9 = alloca ptr, align 8
  %10 = alloca [4 x i32], align 16
  store ptr %0, ptr %6, align 8
  store ptr %1, ptr %7, align 8
  store ptr %2, ptr %8, align 8
  store ptr %3, ptr %9, align 8
  call void @llvm.memset.p0.i64(ptr align 16 %10, i8 0, i64 16, i1 false)
  %11 = load ptr, ptr %9, align 8
  %12 = load i32, ptr %11, align 4
  %13 = icmp sge i32 %12, 0
  br i1 %13, label %14, label %21

14:                                               ; preds = %4
  %15 = load ptr, ptr %6, align 8
  %16 = load ptr, ptr %7, align 8
  %17 = load ptr, ptr %8, align 8
  %18 = load ptr, ptr %9, align 8
  %19 = load i32, ptr %18, align 4
  %20 = getelementptr inbounds [4 x i32], ptr %10, i64 0, i64 0
  call void @_ZN3gmx12_GLOBAL__N_118gridToSubgridIndexERKNS_8BiasGridEPKiS5_iPi(ptr noundef nonnull align 8 dereferenceable(48) %15, ptr noundef %16, ptr noundef %17, i32 noundef %19, ptr noundef %20)
  br label %29

21:                                               ; preds = %4
  %22 = load ptr, ptr %6, align 8
  %23 = load ptr, ptr %7, align 8
  %24 = getelementptr inbounds [4 x i32], ptr %10, i64 0, i64 0
  %25 = load ptr, ptr %9, align 8
  %26 = call noundef zeroext i1 @_ZN3gmx12_GLOBAL__N_118subgridToGridIndexERKNS_8BiasGridEPKiS5_Pi(ptr noundef nonnull align 8 dereferenceable(48) %22, ptr noundef %23, ptr noundef %24, ptr noundef %25)
  br i1 %26, label %27, label %28

27:                                               ; preds = %21
  store i1 true, ptr %5, align 1
  br label %45

28:                                               ; preds = %21
  br label %29

29:                                               ; preds = %28, %14
  br label %30

30:                                               ; preds = %43, %29
  %31 = load ptr, ptr %6, align 8
  %32 = call noundef i32 @_ZNK3gmx8BiasGrid13numDimensionsEv(ptr noundef nonnull align 8 dereferenceable(48) %31)
  %33 = load ptr, ptr %8, align 8
  %34 = getelementptr inbounds [4 x i32], ptr %10, i64 0, i64 0
  %35 = call noundef zeroext i1 @_ZN3gmx12_GLOBAL__N_119stepInMultiDimArrayEiPKiPi(i32 noundef %32, ptr noundef %33, ptr noundef %34)
  br i1 %35, label %36, label %44

36:                                               ; preds = %30
  %37 = load ptr, ptr %6, align 8
  %38 = load ptr, ptr %7, align 8
  %39 = getelementptr inbounds [4 x i32], ptr %10, i64 0, i64 0
  %40 = load ptr, ptr %9, align 8
  %41 = call noundef zeroext i1 @_ZN3gmx12_GLOBAL__N_118subgridToGridIndexERKNS_8BiasGridEPKiS5_Pi(ptr noundef nonnull align 8 dereferenceable(48) %37, ptr noundef %38, ptr noundef %39, ptr noundef %40)
  br i1 %41, label %42, label %43

42:                                               ; preds = %36
  store i1 true, ptr %5, align 1
  br label %45

43:                                               ; preds = %36
  br label %30, !llvm.loop !14

44:                                               ; preds = %30
  store i1 false, ptr %5, align 1
  br label %45

45:                                               ; preds = %44, %42, %27
  %46 = load i1, ptr %5, align 1
  ret i1 %46
}