; Function Attrs: mustprogress uwtable
define noundef zeroext i1 @_ZN3gmx21advancePointInSubgridERKNS_8BiasGridEPKiS4_Pi(ptr nocapture noundef nonnull readonly align 8 dereferenceable(48) %0, ptr nocapture noundef readonly %1, ptr nocapture noundef readonly %2, ptr nocapture noundef %3) local_unnamed_addr #6 {
  %5 = alloca [4 x i32], align 16
  call void @llvm.memset.p0.i64(ptr noundef nonnull align 16 dereferenceable(16) %5, i8 0, i64 16, i1 false)
  %6 = load i32, ptr %3, align 4
  %7 = icmp sgt i32 %6, -1
  %8 = getelementptr inbounds i8, ptr %0, i64 24
  br i1 %7, label %9, label %44

9:                                                ; preds = %4
  %10 = getelementptr inbounds i8, ptr %0, i64 32
  %11 = load ptr, ptr %10, align 8
  %12 = load ptr, ptr %8, align 8
  %13 = ptrtoint ptr %11 to i64
  %14 = ptrtoint ptr %12 to i64
  %15 = sub i64 %13, %14
  %16 = sdiv exact i64 %15, 48
  %17 = trunc i64 %16 to i32
  %18 = icmp sgt i32 %17, 0
  br i1 %18, label %.lr.ph.i, label %_ZN3gmx12_GLOBAL__N_118gridToSubgridIndexERKNS_8BiasGridEPKiS5_iPi.exit

.lr.ph.i:                                         ; preds = %9
  %19 = zext nneg i32 %6 to i64
  %20 = load ptr, ptr %0, align 8
  %sext.i = and i64 %16, 2147483647
  %umax = tail call i64 @llvm.umax.i64(i64 %sext.i, i64 1)
  br label %22

21:                                               ; preds = %39
  %indvars.iv.next.i = add nuw nsw i64 %indvars.iv.i, 1
  %exitcond.not = icmp eq i64 %indvars.iv.next.i, %umax
  br i1 %exitcond.not, label %_ZN3gmx12_GLOBAL__N_118gridToSubgridIndexERKNS_8BiasGridEPKiS5_iPi.exit, label %22, !llvm.loop !14

22:                                               ; preds = %21, %.lr.ph.i
  %indvars.iv.i = phi i64 [ 0, %.lr.ph.i ], [ %indvars.iv.next.i, %21 ]
  %23 = getelementptr inbounds %"struct.gmx::GridPoint", ptr %20, i64 %19, i32 1, i64 %indvars.iv.i
  %24 = load i32, ptr %23, align 4
  %25 = getelementptr inbounds i32, ptr %1, i64 %indvars.iv.i
  %26 = load i32, ptr %25, align 4
  %27 = sub nsw i32 %24, %26
  %28 = getelementptr inbounds %"class.gmx::GridAxis", ptr %12, i64 %indvars.iv.i, i32 5
  %29 = load i32, ptr %28, align 4
  %30 = icmp eq i32 %29, 0
  br i1 %30, label %_ZN3gmx12_GLOBAL__N_117indexWithinPeriodEii.exit.i, label %31

31:                                               ; preds = %22
  %.not.i.i = icmp slt i32 %27, %29
  br i1 %.not.i.i, label %34, label %32

32:                                               ; preds = %31
  %33 = sub nsw i32 %27, %29
  br label %_ZN3gmx12_GLOBAL__N_117indexWithinPeriodEii.exit.i

34:                                               ; preds = %31
  %35 = icmp slt i32 %27, 0
  %36 = select i1 %35, i32 %29, i32 0
  %spec.select.i.i = add nsw i32 %36, %27
  br label %_ZN3gmx12_GLOBAL__N_117indexWithinPeriodEii.exit.i

_ZN3gmx12_GLOBAL__N_117indexWithinPeriodEii.exit.i: ; preds = %34, %32, %22
  %.0.i.i = phi i32 [ %33, %32 ], [ %27, %22 ], [ %spec.select.i.i, %34 ]
  %37 = getelementptr inbounds i32, ptr %5, i64 %indvars.iv.i
  store i32 %.0.i.i, ptr %37, align 4
  %38 = icmp sgt i32 %.0.i.i, -1
  br i1 %38, label %39, label %43

39:                                               ; preds = %_ZN3gmx12_GLOBAL__N_117indexWithinPeriodEii.exit.i
  %40 = getelementptr inbounds i32, ptr %2, i64 %indvars.iv.i
  %41 = load i32, ptr %40, align 4
  %42 = icmp slt i32 %.0.i.i, %41
  br i1 %42, label %21, label %43

43:                                               ; preds = %39, %_ZN3gmx12_GLOBAL__N_117indexWithinPeriodEii.exit.i
  tail call void @_ZN3gmx8internal13assertHandlerEPKcS2_S2_S2_i(ptr noundef nonnull @.str, ptr noundef nonnull @.str.1, ptr noundef nonnull @"__PRETTY_FUNCTION__._ZZN3gmx12_GLOBAL__N_118gridToSubgridIndexERKNS_8BiasGridEPKiS5_iPiENK3$_0clEv", ptr noundef nonnull @.str.2, i32 noundef 411) #22
  unreachable

44:                                               ; preds = %4
  %.val = load ptr, ptr %8, align 8
  %45 = getelementptr inbounds i8, ptr %0, i64 32
  %.val15 = load ptr, ptr %45, align 8
  %46 = call fastcc noundef zeroext i1 @_ZN3gmx12_GLOBAL__N_118subgridToGridIndexERKNS_8BiasGridEPKiS5_Pi(ptr %.val, ptr %.val15, ptr noundef %1, ptr noundef nonnull %5, ptr noundef nonnull %3)
  br i1 %46, label %_ZN3gmx12_GLOBAL__N_119stepInMultiDimArrayEiPKiPi.exit.thread, label %_ZN3gmx12_GLOBAL__N_118gridToSubgridIndexERKNS_8BiasGridEPKiS5_iPi.exit

_ZN3gmx12_GLOBAL__N_118gridToSubgridIndexERKNS_8BiasGridEPKiS5_iPi.exit: ; preds = %21, %9, %44
  %47 = getelementptr inbounds i8, ptr %0, i64 24
  %48 = getelementptr inbounds i8, ptr %0, i64 32
  br label %49

49:                                               ; preds = %.lr.ph.i18._crit_edge, %_ZN3gmx12_GLOBAL__N_118gridToSubgridIndexERKNS_8BiasGridEPKiS5_iPi.exit
  %50 = load ptr, ptr %48, align 8
  %51 = load ptr, ptr %47, align 8
  %52 = ptrtoint ptr %50 to i64
  %53 = ptrtoint ptr %51 to i64
  %54 = sub i64 %52, %53
  %55 = sdiv exact i64 %54, 48
  %56 = trunc i64 %55 to i32
  %57 = icmp sgt i32 %56, 0
  br i1 %57, label %.lr.ph.preheader.i, label %_ZN3gmx12_GLOBAL__N_119stepInMultiDimArrayEiPKiPi.exit.thread

.lr.ph.preheader.i:                               ; preds = %49
  %58 = and i64 %55, 2147483647
  %indvars.iv.next.i2026 = add nsw i64 %58, -1
  %59 = getelementptr inbounds i32, ptr %5, i64 %indvars.iv.next.i2026
  %60 = load i32, ptr %59, align 4
  %61 = getelementptr inbounds i32, ptr %2, i64 %indvars.iv.next.i2026
  %62 = load i32, ptr %61, align 4
  %63 = add nsw i32 %62, -1
  %64 = icmp slt i32 %60, %63
  br i1 %64, label %.lr.ph.i18._crit_edge, label %.lr.ph

.lr.ph:                                           ; preds = %.lr.ph.preheader.i, %.lr.ph.i18
  %65 = phi ptr [ %67, %.lr.ph.i18 ], [ %59, %.lr.ph.preheader.i ]
  %indvars.iv.next.i2028 = phi i64 [ %indvars.iv.next.i20, %.lr.ph.i18 ], [ %indvars.iv.next.i2026, %.lr.ph.preheader.i ]
  %indvars.iv.i1927 = phi i64 [ %indvars.iv.next.i2028, %.lr.ph.i18 ], [ %58, %.lr.ph.preheader.i ]
  %66 = icmp ugt i64 %indvars.iv.i1927, 1
  br i1 %66, label %.lr.ph.i18, label %_ZN3gmx12_GLOBAL__N_119stepInMultiDimArrayEiPKiPi.exit.thread

.lr.ph.i18:                                       ; preds = %.lr.ph
  store i32 0, ptr %65, align 4
  %indvars.iv.next.i20 = add nsw i64 %indvars.iv.next.i2028, -1
  %67 = getelementptr inbounds i32, ptr %5, i64 %indvars.iv.next.i20
  %68 = load i32, ptr %67, align 4
  %69 = getelementptr inbounds i32, ptr %2, i64 %indvars.iv.next.i20
  %70 = load i32, ptr %69, align 4
  %71 = add nsw i32 %70, -1
  %72 = icmp slt i32 %68, %71
  br i1 %72, label %.lr.ph.i18._crit_edge, label %.lr.ph, !llvm.loop !15

.lr.ph.i18._crit_edge:                            ; preds = %.lr.ph.i18, %.lr.ph.preheader.i
  %.lcssa24 = phi ptr [ %59, %.lr.ph.preheader.i ], [ %67, %.lr.ph.i18 ]
  %.lcssa = phi i32 [ %60, %.lr.ph.preheader.i ], [ %68, %.lr.ph.i18 ]
  %73 = add nsw i32 %.lcssa, 1
  store i32 %73, ptr %.lcssa24, align 4
  %74 = call fastcc noundef zeroext i1 @_ZN3gmx12_GLOBAL__N_118subgridToGridIndexERKNS_8BiasGridEPKiS5_Pi(ptr %51, ptr %50, ptr noundef %1, ptr noundef nonnull %5, ptr noundef nonnull %3)
  br i1 %74, label %_ZN3gmx12_GLOBAL__N_119stepInMultiDimArrayEiPKiPi.exit.thread, label %49, !llvm.loop !16

_ZN3gmx12_GLOBAL__N_119stepInMultiDimArrayEiPKiPi.exit.thread: ; preds = %49, %.lr.ph.i18._crit_edge, %.lr.ph, %44
  %.0 = phi i1 [ true, %44 ], [ false, %.lr.ph ], [ false, %49 ], [ %57, %.lr.ph.i18._crit_edge ]
  ret i1 %.0
}